; Function Attrs: nounwind uwtable
define internal fastcc void @put_escaping_backslashes(ptr noundef %0, ptr noundef %1, ptr noundef readonly captures(none) %2) unnamed_addr #0 {
  %4 = alloca %struct.agxbuf, align 8
  call void @llvm.lifetime.start.p0(i64 32, ptr nonnull %4) #18
  call void @llvm.memset.p0.i64(ptr noundef nonnull align 8 dereferenceable(32) %4, i8 0, i64 32, i1 false)
  %5 = getelementptr inbounds nuw i8, ptr %4, i64 31
  %6 = getelementptr inbounds nuw i8, ptr %4, i64 8
  %7 = getelementptr inbounds nuw i8, ptr %4, i64 16
  br label %8

8:                                                ; preds = %agxbputc.exit17, %3
  %.val.i.i721 = phi i8 [ 0, %3 ], [ %.val.i.i722, %agxbputc.exit17 ]
  %.0 = phi ptr [ %2, %3 ], [ %41, %agxbputc.exit17 ]
  %9 = load i8, ptr %.0, align 1, !tbaa !37
  switch i8 %9, label %agxbputc.exit [
    i8 0, label %42
    i8 92, label %agxbsizeof.exit.i
  ]

agxbsizeof.exit.i:                                ; preds = %8
  %.not.i.i = icmp eq i8 %.val.i.i721, -1
  %10 = load i64, ptr %6, align 8
  %11 = load i64, ptr %7, align 8
  %12 = zext i8 %.val.i.i721 to i64
  %.0.i20.i = select i1 %.not.i.i, i64 %10, i64 %12
  %.0.i14.i = select i1 %.not.i.i, i64 %11, i64 31
  %.not.i = icmp ult i64 %.0.i20.i, %.0.i14.i
  br i1 %.not.i, label %14, label %13

13:                                               ; preds = %agxbsizeof.exit.i
  call fastcc void @agxbmore(ptr noundef nonnull %4, i64 noundef 1)
  %.val.i15.pre.i = load i8, ptr %5, align 1, !tbaa !37
  br label %14

14:                                               ; preds = %13, %agxbsizeof.exit.i
  %.val.i.i720 = phi i8 [ %.val.i15.pre.i, %13 ], [ %.val.i.i721, %agxbsizeof.exit.i ]
  %.not.i16.i = icmp eq i8 %.val.i.i720, -1
  br i1 %.not.i16.i, label %20, label %15

15:                                               ; preds = %14
  %16 = zext i8 %.val.i.i720 to i64
  %17 = getelementptr inbounds nuw [31 x i8], ptr %4, i64 0, i64 %16
  store i8 92, ptr %17, align 1, !tbaa !37
  %18 = load i8, ptr %5, align 1, !tbaa !37
  %19 = add i8 %18, 1
  store i8 %19, ptr %5, align 1, !tbaa !37
  br label %agxbputc.exit

20:                                               ; preds = %14
  %21 = load i64, ptr %6, align 8, !tbaa !37
  %22 = load ptr, ptr %4, align 8, !tbaa !37
  %23 = getelementptr inbounds nuw i8, ptr %22, i64 %21
  store i8 92, ptr %23, align 1, !tbaa !37
  %24 = add i64 %21, 1
  store i64 %24, ptr %6, align 8, !tbaa !37
  br label %agxbputc.exit

agxbputc.exit:                                    ; preds = %20, %15, %8
  %.val.i.i7 = phi i8 [ -1, %20 ], [ %19, %15 ], [ %.val.i.i721, %8 ]
  %25 = load i8, ptr %.0, align 1, !tbaa !37
  %.not.i.i8 = icmp eq i8 %.val.i.i7, -1
  %26 = load i64, ptr %6, align 8
  %27 = load i64, ptr %7, align 8
  %28 = zext i8 %.val.i.i7 to i64
  %.0.i20.i11 = select i1 %.not.i.i8, i64 %26, i64 %28
  %.0.i14.i12 = select i1 %.not.i.i8, i64 %27, i64 31
  %.not.i13 = icmp ult i64 %.0.i20.i11, %.0.i14.i12
  br i1 %.not.i13, label %30, label %29

29:                                               ; preds = %agxbputc.exit
  call fastcc void @agxbmore(ptr noundef nonnull %4, i64 noundef 1)
  %.val.i15.pre.i14 = load i8, ptr %5, align 1, !tbaa !37
  br label %30

30:                                               ; preds = %29, %agxbputc.exit
  %.val.i.i723 = phi i8 [ %.val.i15.pre.i14, %29 ], [ %.val.i.i7, %agxbputc.exit ]
  %.not.i16.i16 = icmp eq i8 %.val.i.i723, -1
  br i1 %.not.i16.i16, label %36, label %31

31:                                               ; preds = %30
  %32 = zext i8 %.val.i.i723 to i64
  %33 = getelementptr inbounds nuw [31 x i8], ptr %4, i64 0, i64 %32
  store i8 %25, ptr %33, align 1, !tbaa !37
  %34 = load i8, ptr %5, align 1, !tbaa !37
  %35 = add i8 %34, 1
  store i8 %35, ptr %5, align 1, !tbaa !37
  br label %agxbputc.exit17

36:                                               ; preds = %30
  %37 = load i64, ptr %6, align 8, !tbaa !37
  %38 = load ptr, ptr %4, align 8, !tbaa !37
  %39 = getelementptr inbounds nuw i8, ptr %38, i64 %37
  store i8 %25, ptr %39, align 1, !tbaa !37
  %40 = add i64 %37, 1
  store i64 %40, ptr %6, align 8, !tbaa !37
  br label %agxbputc.exit17

agxbputc.exit17:                                  ; preds = %31, %36
  %.val.i.i722 = phi i8 [ %35, %31 ], [ -1, %36 ]
  %41 = getelementptr inbounds nuw i8, ptr %.0, i64 1
  br label %8, !llvm.loop !120

42:                                               ; preds = %8
  switch i8 %.val.i.i721, label %agxblen.exit.i.i [
    i8 -1, label %44
    i8 31, label %agxbclear.exit.thread.i
  ]

agxblen.exit.i.i:                                 ; preds = %42
  %43 = zext i8 %.val.i.i721 to i64
  br label %agxbsizeof.exit.i.i

44:                                               ; preds = %42
  %45 = load i64, ptr %6, align 8, !tbaa !37
  %46 = load i64, ptr %7, align 8, !tbaa !37
  br label %agxbsizeof.exit.i.i

agxbsizeof.exit.i.i:                              ; preds = %44, %agxblen.exit.i.i
  %.0.i20.i.i = phi i64 [ %45, %44 ], [ %43, %agxblen.exit.i.i ]
  %.0.i14.i.i = phi i64 [ %46, %44 ], [ 31, %agxblen.exit.i.i ]
  %.not.i5.i = icmp ult i64 %.0.i20.i.i, %.0.i14.i.i
  br i1 %.not.i5.i, label %48, label %47

47:                                               ; preds = %agxbsizeof.exit.i.i
  call fastcc void @agxbmore(ptr noundef nonnull %4, i64 noundef 1)
  %.val.i15.pre.i.i = load i8, ptr %5, align 1, !tbaa !37
  br label %48

48:                                               ; preds = %47, %agxbsizeof.exit.i.i
  %.val.i6.pr.i = phi i8 [ %.val.i15.pre.i.i, %47 ], [ %.val.i.i721, %agxbsizeof.exit.i.i ]
  %.not.i16.i.i = icmp eq i8 %.val.i6.pr.i, -1
  br i1 %.not.i16.i.i, label %agxbputc.exit.i.thread, label %agxbputc.exit.i

agxbputc.exit.i.thread:                           ; preds = %48
  %49 = load i64, ptr %6, align 8, !tbaa !37
  %50 = load ptr, ptr %4, align 8, !tbaa !37
  %51 = getelementptr inbounds nuw i8, ptr %50, i64 %49
  store i8 0, ptr %51, align 1, !tbaa !37
  br label %57

agxbputc.exit.i:                                  ; preds = %48
  %52 = zext i8 %.val.i6.pr.i to i64
  %53 = getelementptr inbounds nuw [31 x i8], ptr %4, i64 0, i64 %52
  store i8 0, ptr %53, align 1, !tbaa !37
  %54 = load i8, ptr %5, align 1, !tbaa !37
  %55 = add i8 %54, 1
  store i8 %55, ptr %5, align 1, !tbaa !37
  %56 = icmp eq i8 %55, -1
  br i1 %56, label %57, label %agxbclear.exit.thread.i

agxbclear.exit.thread.i:                          ; preds = %agxbputc.exit.i, %42
  store i8 0, ptr %5, align 1, !tbaa !37
  br label %agxbuse.exit

57:                                               ; preds = %agxbputc.exit.i.thread, %agxbputc.exit.i
  store i64 0, ptr %6, align 8, !tbaa !37
  %58 = load ptr, ptr %4, align 8, !tbaa !37
  br label %agxbuse.exit

agxbuse.exit:                                     ; preds = %agxbclear.exit.thread.i, %57
  %59 = phi ptr [ %58, %57 ], [ %4, %agxbclear.exit.thread.i ]
  %60 = call i32 @agxset(ptr noundef %0, ptr noundef %1, ptr noundef %59) #18
  %61 = load i8, ptr %5, align 1, !tbaa !37
  %62 = icmp eq i8 %61, -1
  br i1 %62, label %63, label %agxbfree.exit

63:                                               ; preds = %agxbuse.exit
  %64 = load ptr, ptr %4, align 8, !tbaa !37
  call void @free(ptr noundef %64) #18
  br label %agxbfree.exit

agxbfree.exit:                                    ; preds = %agxbuse.exit, %63
  call void @llvm.lifetime.end.p0(i64 32, ptr nonnull %4) #18
  ret void
}